   1               		.file	"qk_utils.c"
   2               	__SREG__ = 0x3f
   3               	__SP_H__ = 0x3e
   4               	__SP_L__ = 0x3d
   5               	__CCP__  = 0x34
   6               	__tmp_reg__ = 0
   7               	__zero_reg__ = 1
   8               		.global __do_copy_data
   9               		.global __do_clear_bss
  19               	.Ltext0:
 1186               	.global	qk_cb_init
 1188               	qk_cb_init:
 1189               	.LFB45:
 1190               	.LM1:
 1191               	.LVL0:
 1192 0000 4F92      		push r4
 1193 0002 5F92      		push r5
 1194 0004 6F92      		push r6
 1195 0006 7F92      		push r7
 1196 0008 8F92      		push r8
 1197 000a 9F92      		push r9
 1198 000c AF92      		push r10
 1199 000e BF92      		push r11
 1200 0010 CF92      		push r12
 1201               	.LVL1:
 1202 0012 EF92      		push r14
 1203               	.LVL2:
 1204 0014 FF92      		push r15
 1205 0016 0F93      		push r16
 1206 0018 1F93      		push r17
 1207               	/* prologue: function */
 1208               	/* frame size = 0 */
 1209 001a 5C01      		movw r10,r24
 1210 001c 4B01      		movw r8,r22
 1211 001e 2901      		movw r4,r18
 1212 0020 3A01      		movw r6,r20
 1213               	.LM2:
 1214 0022 FC01      		movw r30,r24
 1215 0024 7183      		std Z+1,r23
 1216 0026 6083      		st Z,r22
 1217               	.LM3:
 1218 0028 C801      		movw r24,r16
 1219 002a B701      		movw r22,r14
 1220               	.LVL3:
 1221 002c 0E94 0000 		call __mulsi3
 1222               	.LVL4:
 1223 0030 C401      		movw r24,r8
 1224               	.LVL5:
 1225 0032 860F      		add r24,r22
 1226 0034 971F      		adc r25,r23
 1227 0036 F501      		movw r30,r10
 1228 0038 9383      		std Z+3,r25
 1229 003a 8283      		std Z+2,r24
 1230               	.LM4:
 1231 003c 4482      		std Z+4,r4
 1232 003e 5582      		std Z+5,r5
 1233 0040 6682      		std Z+6,r6
 1234 0042 7782      		std Z+7,r7
 1235               	.LM5:
 1236 0044 E086      		std Z+8,r14
 1237 0046 F186      		std Z+9,r15
 1238 0048 0287      		std Z+10,r16
 1239 004a 1387      		std Z+11,r17
 1240               	.LM6:
 1241 004c 1486      		std Z+12,__zero_reg__
 1242 004e 1586      		std Z+13,__zero_reg__
 1243 0050 1686      		std Z+14,__zero_reg__
 1244 0052 1786      		std Z+15,__zero_reg__
 1245               	.LM7:
 1246 0054 918A      		std Z+17,r9
 1247 0056 808A      		std Z+16,r8
 1248               	.LM8:
 1249 0058 938A      		std Z+19,r9
 1250 005a 828A      		std Z+18,r8
 1251               	.LM9:
 1252 005c C48A      		std Z+20,r12
 1253               	.LVL6:
 1254               	/* epilogue start */
 1255               	.LM10:
 1256 005e 1F91      		pop r17
 1257 0060 0F91      		pop r16
 1258 0062 FF90      		pop r15
 1259 0064 EF90      		pop r14
 1260               	.LVL7:
 1261 0066 CF90      		pop r12
 1262               	.LVL8:
 1263 0068 BF90      		pop r11
 1264 006a AF90      		pop r10
 1265               	.LVL9:
 1266 006c 9F90      		pop r9
 1267 006e 8F90      		pop r8
 1268               	.LVL10:
 1269 0070 7F90      		pop r7
 1270 0072 6F90      		pop r6
 1271 0074 5F90      		pop r5
 1272 0076 4F90      		pop r4
 1273               	.LVL11:
 1274 0078 0895      		ret
 1275               	.LFE45:
 1277               	.global	qk_cb_isFull
 1279               	qk_cb_isFull:
 1280               	.LFB48:
 1281               	.LM11:
 1282               	.LVL12:
 1283               	/* prologue: function */
 1284               	/* frame size = 0 */
 1285 007a FC01      		movw r30,r24
 1286               	.LM12:
 1287 007c 60E0      		ldi r22,lo8(0)
 1288 007e 2485      		ldd r18,Z+12
 1289 0080 3585      		ldd r19,Z+13
 1290 0082 4685      		ldd r20,Z+14
 1291 0084 5785      		ldd r21,Z+15
 1292 0086 8481      		ldd r24,Z+4
 1293 0088 9581      		ldd r25,Z+5
 1294 008a A681      		ldd r26,Z+6
 1295 008c B781      		ldd r27,Z+7
 1296               	.LVL13:
 1297 008e 2817      		cp r18,r24
 1298 0090 3907      		cpc r19,r25
 1299 0092 4A07      		cpc r20,r26
 1300 0094 5B07      		cpc r21,r27
 1301 0096 01F4      		brne .L4
 1302 0098 61E0      		ldi r22,lo8(1)
 1303               	.L4:
 1304               	.LM13:
 1305 009a 862F      		mov r24,r22
 1306               	/* epilogue start */
 1307 009c 0895      		ret
 1308               	.LFE48:
 1310               	.global	qk_cb_isEmpty
 1312               	qk_cb_isEmpty:
 1313               	.LFB49:
 1314               	.LM14:
 1315               	.LVL14:
 1316               	/* prologue: function */
 1317               	/* frame size = 0 */
 1318               	.LM15:
 1319 009e 20E0      		ldi r18,lo8(0)
 1320 00a0 FC01      		movw r30,r24
 1321 00a2 8485      		ldd r24,Z+12
 1322 00a4 9585      		ldd r25,Z+13
 1323 00a6 A685      		ldd r26,Z+14
 1324 00a8 B785      		ldd r27,Z+15
 1325               	.LVL15:
 1326 00aa 0097      		sbiw r24,0
 1327 00ac A105      		cpc r26,__zero_reg__
 1328 00ae B105      		cpc r27,__zero_reg__
 1329 00b0 01F4      		brne .L7
 1330 00b2 21E0      		ldi r18,lo8(1)
 1331               	.L7:
 1332               	.LM16:
 1333 00b4 822F      		mov r24,r18
 1334               	/* epilogue start */
 1335 00b6 0895      		ret
 1336               	.LFE49:
 1338               	.global	_floatFromBytes
 1340               	_floatFromBytes:
 1341               	.LFB57:
 1342               	.LM17:
 1343               	.LVL16:
 1344               	/* prologue: function */
 1345               	/* frame size = 0 */
 1346               	.LVL17:
 1347               	/* epilogue start */
 1348               	.LM18:
 1349 00b8 0895      		ret
 1350               	.LFE57:
 1352               	.global	_bytesFromFloat
 1354               	_bytesFromFloat:
 1355               	.LFB58:
 1356               	.LM19:
 1357               	.LVL18:
 1358               	/* prologue: function */
 1359               	/* frame size = 0 */
 1360               	.LVL19:
 1361               	/* epilogue start */
 1362               	.LM20:
 1363 00ba 0895      		ret
 1364               	.LFE58:
 1366               	.global	_blinkLED
 1368               	_blinkLED:
 1369               	.LFB56:
 1370               	.LM21:
 1371               	.LVL20:
 1372 00bc 1F93      		push r17
 1373 00be CF93      		push r28
 1374 00c0 DF93      		push r29
 1375               	/* prologue: function */
 1376               	/* frame size = 0 */
 1377 00c2 182F      		mov r17,r24
 1378 00c4 EB01      		movw r28,r22
 1379               	.LVL21:
 1380               	.L14:
 1381               	.LM22:
 1382 00c6 81E0      		ldi r24,lo8(1)
 1383 00c8 0E94 0000 		call _setLED
 1384               	.LM23:
 1385 00cc CE01      		movw r24,r28
 1386 00ce 0E94 0000 		call delay_ms
 1387               	.LM24:
 1388 00d2 80E0      		ldi r24,lo8(0)
 1389 00d4 0E94 0000 		call _setLED
 1390               	.LM25:
 1391 00d8 CE01      		movw r24,r28
 1392 00da 0E94 0000 		call delay_ms
 1393               	.LM26:
 1394 00de 1150      		subi r17,lo8(-(-1))
 1395 00e0 01F4      		brne .L14
 1396               	/* epilogue start */
 1397               	.LM27:
 1398 00e2 DF91      		pop r29
 1399 00e4 CF91      		pop r28
 1400               	.LVL22:
 1401 00e6 1F91      		pop r17
 1402               	.LVL23:
 1403 00e8 0895      		ret
 1404               	.LFE56:
 1407               	printchar:
 1408               	.LFB50:
 1409               	.LM28:
 1410               	.LVL24:
 1411 00ea CF93      		push r28
 1412 00ec DF93      		push r29
 1413               	/* prologue: function */
 1414               	/* frame size = 0 */
 1415 00ee DC01      		movw r26,r24
 1416 00f0 EB01      		movw r28,r22
 1417               	.LM29:
 1418 00f2 0097      		sbiw r24,0
 1419 00f4 01F0      		breq .L18
 1420               	.LVL25:
 1421               	.LM30:
 1422 00f6 ED91      		ld r30,X+
 1423 00f8 FC91      		ld r31,X
 1424 00fa 1197      		sbiw r26,1
 1425 00fc 6083      		st Z,r22
 1426               	.LM31:
 1427 00fe 8D91      		ld r24,X+
 1428 0100 9C91      		ld r25,X
 1429 0102 1197      		sbiw r26,1
 1430               	.LVL26:
 1431 0104 0196      		adiw r24,1
 1432 0106 8D93      		st X+,r24
 1433 0108 9C93      		st X,r25
 1434 010a 00C0      		rjmp .L20
 1435               	.LVL27:
 1436               	.L18:
 1437               	.LM32:
 1438 010c 80E0      		ldi r24,lo8(0)
 1439               	.LVL28:
 1440 010e 0E94 0000 		call hal_uart_writeByte
 1441               	.LVL29:
 1442               	.LM33:
 1443 0112 2A97      		sbiw r28,10
 1444 0114 01F4      		brne .L20
 1445               	.LM34:
 1446 0116 80E0      		ldi r24,lo8(0)
 1447 0118 6DE0      		ldi r22,lo8(13)
 1448 011a 0E94 0000 		call hal_uart_writeByte
 1449               	.LVL30:
 1450               	.L20:
 1451               	/* epilogue start */
 1452               	.LM35:
 1453 011e DF91      		pop r29
 1454 0120 CF91      		pop r28
 1455               	.LVL31:
 1456 0122 0895      		ret
 1457               	.LFE50:
 1460               	prints:
 1461               	.LFB51:
 1462               	.LM36:
 1463               	.LVL32:
 1464 0124 AF92      		push r10
 1465 0126 BF92      		push r11
 1466 0128 CF92      		push r12
 1467 012a DF92      		push r13
 1468 012c EF92      		push r14
 1469 012e FF92      		push r15
 1470 0130 0F93      		push r16
 1471 0132 1F93      		push r17
 1472 0134 CF93      		push r28
 1473 0136 DF93      		push r29
 1474               	/* prologue: function */
 1475               	/* frame size = 0 */
 1476 0138 5C01      		movw r10,r24
 1477 013a 6B01      		movw r12,r22
 1478 013c 8A01      		movw r16,r20
 1479               	.LM37:
 1480 013e 1416      		cp __zero_reg__,r20
 1481 0140 1506      		cpc __zero_reg__,r21
 1482 0142 04F4      		brge .L22
 1483               	.LVL33:
 1484 0144 FB01      		movw r30,r22
 1485               	.LVL34:
 1486 0146 40E0      		ldi r20,lo8(0)
 1487 0148 50E0      		ldi r21,hi8(0)
 1488               	.LVL35:
 1489 014a 00C0      		rjmp .L23
 1490               	.LVL36:
 1491               	.L24:
 1492               	.LBB6:
 1493               	.LM38:
 1494 014c 4F5F      		subi r20,lo8(-(1))
 1495 014e 5F4F      		sbci r21,hi8(-(1))
 1496 0150 3196      		adiw r30,1
 1497               	.LVL37:
 1498               	.L23:
 1499 0152 8081      		ld r24,Z
 1500 0154 8823      		tst r24
 1501 0156 01F4      		brne .L24
 1502               	.LM39:
 1503 0158 4017      		cp r20,r16
 1504 015a 5107      		cpc r21,r17
 1505 015c 04F0      		brlt .L25
 1506 015e 00E0      		ldi r16,lo8(0)
 1507 0160 10E0      		ldi r17,hi8(0)
 1508 0162 00C0      		rjmp .L26
 1509               	.L25:
 1510               	.LM40:
 1511 0164 041B      		sub r16,r20
 1512 0166 150B      		sbc r17,r21
 1513               	.L26:
 1514               	.LM41:
 1515 0168 21FF      		sbrs r18,1
 1516 016a 00C0      		rjmp .L22
 1517 016c 90E3      		ldi r25,lo8(48)
 1518 016e E92E      		mov r14,r25
 1519 0170 F12C      		mov r15,__zero_reg__
 1520               	.LVL38:
 1521 0172 00C0      		rjmp .L27
 1522               	.LVL39:
 1523               	.L22:
 1524 0174 80E2      		ldi r24,lo8(32)
 1525 0176 E82E      		mov r14,r24
 1526 0178 F12C      		mov r15,__zero_reg__
 1527               	.LVL40:
 1528               	.L27:
 1529               	.LBE6:
 1530               	.LM42:
 1531 017a 20FF      		sbrs r18,0
 1532 017c 00C0      		rjmp .L28
 1533 017e C0E0      		ldi r28,lo8(0)
 1534 0180 D0E0      		ldi r29,hi8(0)
 1535               	.LVL41:
 1536 0182 00C0      		rjmp .L36
 1537               	.LVL42:
 1538               	.L28:
 1539 0184 C0E0      		ldi r28,lo8(0)
 1540 0186 D0E0      		ldi r29,hi8(0)
 1541               	.LVL43:
 1542 0188 00C0      		rjmp .L30
 1543               	.L31:
 1544               	.LM43:
 1545 018a C501      		movw r24,r10
 1546 018c B701      		movw r22,r14
 1547 018e 0E94 0000 		call printchar
 1548               	.LVL44:
 1549               	.LM44:
 1550 0192 2196      		adiw r28,1
 1551               	.LM45:
 1552 0194 0150      		subi r16,lo8(-(-1))
 1553 0196 1040      		sbci r17,hi8(-(-1))
 1554               	.LVL45:
 1555               	.L30:
 1556 0198 1016      		cp __zero_reg__,r16
 1557 019a 1106      		cpc __zero_reg__,r17
 1558 019c 04F0      		brlt .L31
 1559 019e 00C0      		rjmp .L36
 1560               	.LVL46:
 1561               	.L32:
 1562               	.LM46:
 1563 01a0 C501      		movw r24,r10
 1564 01a2 70E0      		ldi r23,lo8(0)
 1565 01a4 0E94 0000 		call printchar
 1566               	.LVL47:
 1567               	.LM47:
 1568 01a8 2196      		adiw r28,1
 1569               	.LM48:
 1570 01aa 0894      		sec
 1571 01ac C11C      		adc r12,__zero_reg__
 1572 01ae D11C      		adc r13,__zero_reg__
 1573               	.LVL48:
 1574               	.L36:
 1575 01b0 F601      		movw r30,r12
 1576               	.LVL49:
 1577 01b2 6081      		ld r22,Z
 1578 01b4 6623      		tst r22
 1579 01b6 01F4      		brne .L32
 1580 01b8 00C0      		rjmp .L37
 1581               	.L34:
 1582               	.LM49:
 1583 01ba C501      		movw r24,r10
 1584 01bc B701      		movw r22,r14
 1585 01be 0E94 0000 		call printchar
 1586               	.LVL50:
 1587               	.LM50:
 1588 01c2 2196      		adiw r28,1
 1589               	.LM51:
 1590 01c4 0150      		subi r16,lo8(-(-1))
 1591 01c6 1040      		sbci r17,hi8(-(-1))
 1592               	.LVL51:
 1593               	.L37:
 1594 01c8 1016      		cp __zero_reg__,r16
 1595 01ca 1106      		cpc __zero_reg__,r17
 1596 01cc 04F0      		brlt .L34
 1597               	.LM52:
 1598 01ce CE01      		movw r24,r28
 1599               	.LVL52:
 1600               	/* epilogue start */
 1601 01d0 DF91      		pop r29
 1602 01d2 CF91      		pop r28
 1603 01d4 1F91      		pop r17
 1604 01d6 0F91      		pop r16
 1605               	.LVL53:
 1606 01d8 FF90      		pop r15
 1607 01da EF90      		pop r14
 1608               	.LVL54:
 1609 01dc DF90      		pop r13
 1610 01de CF90      		pop r12
 1611               	.LVL55:
 1612 01e0 BF90      		pop r11
 1613 01e2 AF90      		pop r10
 1614               	.LVL56:
 1615 01e4 0895      		ret
 1616               	.LFE51:
 1619               	printi:
 1620               	.LFB52:
 1621               	.LM53:
 1622               	.LVL57:
 1623 01e6 5F92      		push r5
 1624 01e8 6F92      		push r6
 1625 01ea 7F92      		push r7
 1626 01ec 8F92      		push r8
 1627 01ee 9F92      		push r9
 1628 01f0 AF92      		push r10
 1629 01f2 BF92      		push r11
 1630 01f4 CF92      		push r12
 1631               	.LVL58:
 1632 01f6 DF92      		push r13
 1633 01f8 EF92      		push r14
 1634               	.LVL59:
 1635 01fa FF92      		push r15
 1636 01fc 0F93      		push r16
 1637               	.LVL60:
 1638 01fe 1F93      		push r17
 1639 0200 DF93      		push r29
 1640 0202 CF93      		push r28
 1641 0204 CDB7      		in r28,__SP_L__
 1642 0206 DEB7      		in r29,__SP_H__
 1643 0208 2C97      		sbiw r28,12
 1644 020a 0FB6      		in __tmp_reg__,__SREG__
 1645 020c F894      		cli
 1646 020e DEBF      		out __SP_H__,r29
 1647 0210 0FBE      		out __SREG__,__tmp_reg__
 1648 0212 CDBF      		out __SP_L__,r28
 1649               	/* prologue: function */
 1650               	/* frame size = 12 */
 1651 0214 4C01      		movw r8,r24
 1652 0216 5801      		movw r10,r16
 1653               	.LVL61:
 1654 0218 7E2C      		mov r7,r14
 1655               	.LVL62:
 1656 021a 5F2C      		mov r5,r15
 1657               	.LVL63:
 1658 021c D601      		movw r26,r12
 1659               	.LVL64:
 1660               	.LM54:
 1661 021e FB01      		movw r30,r22
 1662               	.LVL65:
 1663               	.LM55:
 1664 0220 6115      		cp r22,__zero_reg__
 1665 0222 7105      		cpc r23,__zero_reg__
 1666 0224 01F4      		brne .L39
 1667               	.LVL66:
 1668               	.LM56:
 1669 0226 80E3      		ldi r24,lo8(48)
 1670 0228 8983      		std Y+1,r24
 1671               	.LM57:
 1672 022a 1A82      		std Y+2,__zero_reg__
 1673               	.LM58:
 1674 022c C401      		movw r24,r8
 1675 022e BE01      		movw r22,r28
 1676               	.LVL67:
 1677 0230 6F5F      		subi r22,lo8(-(1))
 1678 0232 7F4F      		sbci r23,hi8(-(1))
 1679 0234 A801      		movw r20,r16
 1680               	.LVL68:
 1681 0236 2E2D      		mov r18,r14
 1682               	.LVL69:
 1683 0238 3F2D      		mov r19,r15
 1684 023a 0E94 0000 		call prints
 1685               	.LVL70:
 1686 023e 9C01      		movw r18,r24
 1687 0240 00C0      		rjmp .L40
 1688               	.LVL71:
 1689               	.L39:
 1690               	.LM59:
 1691 0242 232B      		or r18,r19
 1692 0244 01F0      		breq .L41
 1693 0246 4A30      		cpi r20,10
 1694 0248 5105      		cpc r21,__zero_reg__
 1695 024a 01F4      		brne .L41
 1696 024c 77FF      		sbrs r23,7
 1697 024e 00C0      		rjmp .L41
 1698               	.LM60:
 1699 0250 F095      		com r31
 1700 0252 E195      		neg r30
 1701 0254 FF4F      		sbci r31,lo8(-1)
 1702               	.LVL72:
 1703 0256 01E0      		ldi r16,lo8(1)
 1704 0258 10E0      		ldi r17,hi8(1)
 1705               	.LVL73:
 1706 025a 00C0      		rjmp .L42
 1707               	.LVL74:
 1708               	.L41:
 1709 025c 00E0      		ldi r16,lo8(0)
 1710 025e 10E0      		ldi r17,hi8(0)
 1711               	.LVL75:
 1712               	.L42:
 1713               	.LM61:
 1714 0260 1C86      		std Y+12,__zero_reg__
 1715 0262 3CE0      		ldi r19,lo8(12)
 1716 0264 C32E      		mov r12,r19
 1717 0266 D12C      		mov r13,__zero_reg__
 1718               	.LVL76:
 1719 0268 CC0E      		add r12,r28
 1720 026a DD1E      		adc r13,r29
 1721               	.LM62:
 1722 026c 642E      		mov r6,r20
 1723 026e 452F      		mov r20,r21
 1724               	.LVL77:
 1725               	.LM63:
 1726 0270 26EC      		ldi r18,lo8(-58)
 1727 0272 E22E      		mov r14,r18
 1728 0274 2FEF      		ldi r18,hi8(-58)
 1729 0276 F22E      		mov r15,r18
 1730               	.LVL78:
 1731 0278 EA0E      		add r14,r26
 1732 027a FB1E      		adc r15,r27
 1733 027c 00C0      		rjmp .L43
 1734               	.L45:
 1735               	.LM64:
 1736 027e CF01      		movw r24,r30
 1737 0280 662D      		mov r22,r6
 1738               	.LVL79:
 1739 0282 742F      		mov r23,r20
 1740 0284 0E94 0000 		call __udivmodhi4
 1741               	.LVL80:
 1742               	.LM65:
 1743 0288 8A30      		cpi r24,10
 1744 028a 9105      		cpc r25,__zero_reg__
 1745               	.LVL81:
 1746 028c 04F0      		brlt .L44
 1747               	.LM66:
 1748 028e 8E0D      		add r24,r14
 1749 0290 9F1D      		adc r25,r15
 1750               	.L44:
 1751               	.LM67:
 1752 0292 805D      		subi r24,lo8(-(48))
 1753               	.LVL82:
 1754 0294 D601      		movw r26,r12
 1755 0296 8E93      		st -X,r24
 1756 0298 6D01      		movw r12,r26
 1757               	.LM68:
 1758 029a CF01      		movw r24,r30
 1759 029c 662D      		mov r22,r6
 1760 029e 742F      		mov r23,r20
 1761 02a0 0E94 0000 		call __udivmodhi4
 1762 02a4 FB01      		movw r30,r22
 1763               	.LVL83:
 1764               	.L43:
 1765               	.LM69:
 1766 02a6 3097      		sbiw r30,0
 1767 02a8 01F4      		brne .L45
 1768               	.LM70:
 1769 02aa 012B      		or r16,r17
 1770 02ac 01F0      		breq .L50
 1771               	.L46:
 1772               	.LM71:
 1773 02ae A114      		cp r10,__zero_reg__
 1774 02b0 B104      		cpc r11,__zero_reg__
 1775 02b2 01F0      		breq .L48
 1776 02b4 71FE      		sbrs r7,1
 1777 02b6 00C0      		rjmp .L48
 1778               	.LM72:
 1779 02b8 C401      		movw r24,r8
 1780 02ba 6DE2      		ldi r22,lo8(45)
 1781 02bc 70E0      		ldi r23,hi8(45)
 1782               	.LVL84:
 1783 02be 0E94 0000 		call printchar
 1784               	.LVL85:
 1785               	.LM73:
 1786 02c2 0894      		sec
 1787 02c4 A108      		sbc r10,__zero_reg__
 1788 02c6 B108      		sbc r11,__zero_reg__
 1789 02c8 01E0      		ldi r16,lo8(1)
 1790 02ca 10E0      		ldi r17,hi8(1)
 1791               	.LVL86:
 1792 02cc 00C0      		rjmp .L47
 1793               	.LVL87:
 1794               	.L48:
 1795               	.LM74:
 1796 02ce 8DE2      		ldi r24,lo8(45)
 1797 02d0 F601      		movw r30,r12
 1798               	.LVL88:
 1799 02d2 8293      		st -Z,r24
 1800 02d4 6F01      		movw r12,r30
 1801               	.LVL89:
 1802               	.L50:
 1803 02d6 00E0      		ldi r16,lo8(0)
 1804 02d8 10E0      		ldi r17,hi8(0)
 1805               	.LVL90:
 1806               	.L47:
 1807               	.LM75:
 1808 02da C401      		movw r24,r8
 1809 02dc B601      		movw r22,r12
 1810               	.LVL91:
 1811 02de A501      		movw r20,r10
 1812 02e0 272D      		mov r18,r7
 1813 02e2 352D      		mov r19,r5
 1814 02e4 0E94 0000 		call prints
 1815               	.LVL92:
 1816 02e8 9C01      		movw r18,r24
 1817 02ea 200F      		add r18,r16
 1818 02ec 311F      		adc r19,r17
 1819               	.LVL93:
 1820               	.L40:
 1821               	.LM76:
 1822 02ee C901      		movw r24,r18
 1823               	/* epilogue start */
 1824 02f0 2C96      		adiw r28,12
 1825 02f2 0FB6      		in __tmp_reg__,__SREG__
 1826 02f4 F894      		cli
 1827 02f6 DEBF      		out __SP_H__,r29
 1828 02f8 0FBE      		out __SREG__,__tmp_reg__
 1829 02fa CDBF      		out __SP_L__,r28
 1830 02fc CF91      		pop r28
 1831 02fe DF91      		pop r29
 1832 0300 1F91      		pop r17
 1833 0302 0F91      		pop r16
 1834               	.LVL94:
 1835 0304 FF90      		pop r15
 1836 0306 EF90      		pop r14
 1837 0308 DF90      		pop r13
 1838 030a CF90      		pop r12
 1839               	.LVL95:
 1840 030c BF90      		pop r11
 1841 030e AF90      		pop r10
 1842               	.LVL96:
 1843 0310 9F90      		pop r9
 1844 0312 8F90      		pop r8
 1845               	.LVL97:
 1846 0314 7F90      		pop r7
 1847               	.LVL98:
 1848 0316 6F90      		pop r6
 1849 0318 5F90      		pop r5
 1850               	.LVL99:
 1851 031a 0895      		ret
 1852               	.LFE52:
 1854               		.data
 1855               	.LC0:
 1856 0000 286E 756C 		.string	"(null)"
 1856      6C29 00
 1857               		.text
 1859               	print:
 1860               	.LFB53:
 1861               	.LM77:
 1862               	.LVL100:
 1863 031c 2F92      		push r2
 1864 031e 3F92      		push r3
 1865 0320 4F92      		push r4
 1866 0322 5F92      		push r5
 1867 0324 6F92      		push r6
 1868 0326 7F92      		push r7
 1869 0328 8F92      		push r8
 1870 032a 9F92      		push r9
 1871 032c AF92      		push r10
 1872 032e BF92      		push r11
 1873 0330 CF92      		push r12
 1874 0332 DF92      		push r13
 1875 0334 EF92      		push r14
 1876 0336 FF92      		push r15
 1877 0338 0F93      		push r16
 1878 033a 1F93      		push r17
 1879 033c DF93      		push r29
 1880 033e CF93      		push r28
 1881 0340 00D0      		rcall .
 1882 0342 CDB7      		in r28,__SP_L__
 1883 0344 DEB7      		in r29,__SP_H__
 1884               	/* prologue: function */
 1885               	/* frame size = 2 */
 1886 0346 2C01      		movw r4,r24
 1887               	.LM78:
 1888 0348 DB01      		movw r26,r22
 1889 034a 6D90      		ld r6,X+
 1890 034c 7D90      		ld r7,X+
 1891               	.LVL101:
 1892 034e 5D01      		movw r10,r26
 1893               	.LVL102:
 1894 0350 8824      		clr r8
 1895 0352 9924      		clr r9
 1896               	.LVL103:
 1897               	.LM79:
 1898 0354 1E01      		movw r2,r28
 1899 0356 0894      		sec
 1900 0358 211C      		adc r2,__zero_reg__
 1901 035a 311C      		adc r3,__zero_reg__
 1902 035c 00C0      		rjmp .L52
 1903               	.LVL104:
 1904               	.L67:
 1905               	.LM80:
 1906 035e 8532      		cpi r24,lo8(37)
 1907 0360 01F0      		breq .+2
 1908 0362 00C0      		rjmp .L53
 1909               	.LM81:
 1910 0364 0894      		sec
 1911 0366 611C      		adc r6,__zero_reg__
 1912 0368 711C      		adc r7,__zero_reg__
 1913               	.LM82:
 1914 036a F301      		movw r30,r6
 1915 036c 8081      		ld r24,Z
 1916 036e 8823      		tst r24
 1917 0370 01F4      		brne .+2
 1918 0372 00C0      		rjmp .L54
 1919               	.LM83:
 1920 0374 8532      		cpi r24,lo8(37)
 1921 0376 01F4      		brne .+2
 1922 0378 00C0      		rjmp .L53
 1923               	.LM84:
 1924 037a 8D32      		cpi r24,lo8(45)
 1925 037c 01F0      		breq .L55
 1926 037e E0E0      		ldi r30,lo8(0)
 1927 0380 F0E0      		ldi r31,hi8(0)
 1928               	.LVL105:
 1929 0382 00C0      		rjmp .L70
 1930               	.LVL106:
 1931               	.L55:
 1932               	.LM85:
 1933 0384 0894      		sec
 1934 0386 611C      		adc r6,__zero_reg__
 1935 0388 711C      		adc r7,__zero_reg__
 1936 038a E1E0      		ldi r30,lo8(1)
 1937 038c F0E0      		ldi r31,hi8(1)
 1938               	.LVL107:
 1939 038e 00C0      		rjmp .L70
 1940               	.L57:
 1941               	.LM86:
 1942 0390 0894      		sec
 1943 0392 611C      		adc r6,__zero_reg__
 1944 0394 711C      		adc r7,__zero_reg__
 1945               	.LM87:
 1946 0396 E260      		ori r30,lo8(2)
 1947               	.L70:
 1948               	.LM88:
 1949 0398 D301      		movw r26,r6
 1950 039a 8C91      		ld r24,X
 1951 039c 8033      		cpi r24,lo8(48)
 1952 039e 01F0      		breq .L57
 1953 03a0 00E0      		ldi r16,lo8(0)
 1954 03a2 10E0      		ldi r17,hi8(0)
 1955 03a4 00C0      		rjmp .L58
 1956               	.L59:
 1957               	.LM89:
 1958 03a6 C801      		movw r24,r16
 1959 03a8 B3E0      		ldi r27,3
 1960 03aa 880F      	1:	lsl r24
 1961 03ac 991F      		rol r25
 1962 03ae BA95      		dec r27
 1963 03b0 01F4      		brne 1b
 1964 03b2 000F      		lsl r16
 1965 03b4 111F      		rol r17
 1966 03b6 800F      		add r24,r16
 1967 03b8 911F      		adc r25,r17
 1968               	.LM90:
 1969 03ba 022F      		mov r16,r18
 1970               	.LVL108:
 1971 03bc 10E0      		ldi r17,lo8(0)
 1972 03be 0053      		subi r16,lo8(-(-48))
 1973 03c0 1040      		sbci r17,hi8(-(-48))
 1974               	.LVL109:
 1975 03c2 080F      		add r16,r24
 1976 03c4 191F      		adc r17,r25
 1977               	.LM91:
 1978 03c6 0894      		sec
 1979 03c8 611C      		adc r6,__zero_reg__
 1980 03ca 711C      		adc r7,__zero_reg__
 1981               	.L58:
 1982 03cc D301      		movw r26,r6
 1983 03ce 2C91      		ld r18,X
 1984 03d0 822F      		mov r24,r18
 1985 03d2 8053      		subi r24,lo8(-(-48))
 1986 03d4 8A30      		cpi r24,lo8(10)
 1987 03d6 00F0      		brlo .L59
 1988               	.LM92:
 1989 03d8 2337      		cpi r18,lo8(115)
 1990 03da 01F4      		brne .L60
 1991               	.LBB7:
 1992               	.LM93:
 1993 03dc D501      		movw r26,r10
 1994 03de 6D91      		ld r22,X+
 1995 03e0 7C91      		ld r23,X
 1996               	.LVL110:
 1997               	.LM94:
 1998 03e2 6115      		cp r22,__zero_reg__
 1999 03e4 7105      		cpc r23,__zero_reg__
 2000 03e6 01F4      		brne .L61
 2001 03e8 60E0      		ldi r22,lo8(.LC0)
 2002 03ea 70E0      		ldi r23,hi8(.LC0)
 2003               	.L61:
 2004               	.LM95:
 2005 03ec 82E0      		ldi r24,lo8(2)
 2006 03ee 90E0      		ldi r25,hi8(2)
 2007 03f0 A80E      		add r10,r24
 2008 03f2 B91E      		adc r11,r25
 2009               	.LM96:
 2010 03f4 C201      		movw r24,r4
 2011 03f6 00C0      		rjmp .L72
 2012               	.LVL111:
 2013               	.L60:
 2014               	.LBE7:
 2015               	.LM97:
 2016 03f8 2436      		cpi r18,lo8(100)
 2017 03fa 01F4      		brne .L63
 2018               	.LM98:
 2019 03fc D501      		movw r26,r10
 2020 03fe 6D91      		ld r22,X+
 2021 0400 7D91      		ld r23,X+
 2022 0402 5D01      		movw r10,r26
 2023 0404 C201      		movw r24,r4
 2024 0406 4AE0      		ldi r20,lo8(10)
 2025 0408 50E0      		ldi r21,hi8(10)
 2026 040a 21E0      		ldi r18,lo8(1)
 2027 040c 30E0      		ldi r19,hi8(1)
 2028               	.L74:
 2029 040e 7F01      		movw r14,r30
 2030 0410 F1E6      		ldi r31,lo8(97)
 2031 0412 CF2E      		mov r12,r31
 2032 0414 D12C      		mov r13,__zero_reg__
 2033               	.L73:
 2034 0416 0E94 0000 		call printi
 2035               	.LVL112:
 2036               	.L71:
 2037 041a 880E      		add r8,r24
 2038 041c 991E      		adc r9,r25
 2039 041e 00C0      		rjmp .L62
 2040               	.LVL113:
 2041               	.L63:
 2042               	.LM99:
 2043 0420 2837      		cpi r18,lo8(120)
 2044 0422 01F4      		brne .L64
 2045               	.LM100:
 2046 0424 D501      		movw r26,r10
 2047 0426 6D91      		ld r22,X+
 2048 0428 7D91      		ld r23,X+
 2049 042a 5D01      		movw r10,r26
 2050 042c C201      		movw r24,r4
 2051 042e 40E1      		ldi r20,lo8(16)
 2052 0430 50E0      		ldi r21,hi8(16)
 2053 0432 00C0      		rjmp .L75
 2054               	.L64:
 2055               	.LM101:
 2056 0434 2835      		cpi r18,lo8(88)
 2057 0436 01F4      		brne .L65
 2058               	.LM102:
 2059 0438 D501      		movw r26,r10
 2060 043a 6D91      		ld r22,X+
 2061 043c 7D91      		ld r23,X+
 2062 043e 5D01      		movw r10,r26
 2063 0440 C201      		movw r24,r4
 2064 0442 40E1      		ldi r20,lo8(16)
 2065 0444 50E0      		ldi r21,hi8(16)
 2066 0446 20E0      		ldi r18,lo8(0)
 2067 0448 30E0      		ldi r19,hi8(0)
 2068 044a 7F01      		movw r14,r30
 2069 044c E1E4      		ldi r30,lo8(65)
 2070 044e CE2E      		mov r12,r30
 2071 0450 D12C      		mov r13,__zero_reg__
 2072               	.LVL114:
 2073 0452 00C0      		rjmp .L73
 2074               	.LVL115:
 2075               	.L65:
 2076               	.LM103:
 2077 0454 2537      		cpi r18,lo8(117)
 2078 0456 01F4      		brne .L66
 2079               	.LM104:
 2080 0458 D501      		movw r26,r10
 2081 045a 6D91      		ld r22,X+
 2082 045c 7D91      		ld r23,X+
 2083 045e 5D01      		movw r10,r26
 2084 0460 C201      		movw r24,r4
 2085 0462 4AE0      		ldi r20,lo8(10)
 2086 0464 50E0      		ldi r21,hi8(10)
 2087               	.L75:
 2088 0466 20E0      		ldi r18,lo8(0)
 2089 0468 30E0      		ldi r19,hi8(0)
 2090 046a 00C0      		rjmp .L74
 2091               	.L66:
 2092               	.LM105:
 2093 046c 2336      		cpi r18,lo8(99)
 2094 046e 01F4      		brne .L62
 2095               	.LM106:
 2096 0470 D501      		movw r26,r10
 2097 0472 8C91      		ld r24,X
 2098 0474 8983      		std Y+1,r24
 2099 0476 82E0      		ldi r24,lo8(2)
 2100 0478 90E0      		ldi r25,hi8(2)
 2101 047a A80E      		add r10,r24
 2102 047c B91E      		adc r11,r25
 2103               	.LM107:
 2104 047e 1A82      		std Y+2,__zero_reg__
 2105               	.LM108:
 2106 0480 C201      		movw r24,r4
 2107 0482 B101      		movw r22,r2
 2108               	.LVL116:
 2109               	.L72:
 2110 0484 A801      		movw r20,r16
 2111 0486 9F01      		movw r18,r30
 2112 0488 0E94 0000 		call prints
 2113               	.LVL117:
 2114 048c 00C0      		rjmp .L71
 2115               	.L53:
 2116               	.LM109:
 2117 048e D301      		movw r26,r6
 2118 0490 6C91      		ld r22,X
 2119 0492 C201      		movw r24,r4
 2120 0494 70E0      		ldi r23,lo8(0)
 2121 0496 0E94 0000 		call printchar
 2122               	.LM110:
 2123 049a 0894      		sec
 2124 049c 811C      		adc r8,__zero_reg__
 2125 049e 911C      		adc r9,__zero_reg__
 2126               	.LVL118:
 2127               	.L62:
 2128               	.LM111:
 2129 04a0 0894      		sec
 2130 04a2 611C      		adc r6,__zero_reg__
 2131 04a4 711C      		adc r7,__zero_reg__
 2132               	.LVL119:
 2133               	.L52:
 2134 04a6 F301      		movw r30,r6
 2135               	.LVL120:
 2136 04a8 8081      		ld r24,Z
 2137 04aa 8823      		tst r24
 2138 04ac 01F0      		breq .+2
 2139 04ae 00C0      		rjmp .L67
 2140               	.L54:
 2141               	.LM112:
 2142 04b0 4114      		cp r4,__zero_reg__
 2143 04b2 5104      		cpc r5,__zero_reg__
 2144 04b4 01F0      		breq .L68
 2145 04b6 D201      		movw r26,r4
 2146 04b8 ED91      		ld r30,X+
 2147 04ba FC91      		ld r31,X
 2148 04bc 1082      		st Z,__zero_reg__
 2149               	.L68:
 2150               	.LM113:
 2151 04be C401      		movw r24,r8
 2152               	.LVL121:
 2153               	/* epilogue start */
 2154 04c0 0F90      		pop __tmp_reg__
 2155 04c2 0F90      		pop __tmp_reg__
 2156 04c4 CF91      		pop r28
 2157 04c6 DF91      		pop r29
 2158 04c8 1F91      		pop r17
 2159               	.LVL122:
 2160 04ca 0F91      		pop r16
 2161               	.LVL123:
 2162 04cc FF90      		pop r15
 2163 04ce EF90      		pop r14
 2164 04d0 DF90      		pop r13
 2165 04d2 CF90      		pop r12
 2166 04d4 BF90      		pop r11
 2167 04d6 AF90      		pop r10
 2168               	.LVL124:
 2169 04d8 9F90      		pop r9
 2170 04da 8F90      		pop r8
 2171 04dc 7F90      		pop r7
 2172 04de 6F90      		pop r6
 2173               	.LVL125:
 2174 04e0 5F90      		pop r5
 2175 04e2 4F90      		pop r4
 2176               	.LVL126:
 2177 04e4 3F90      		pop r3
 2178 04e6 2F90      		pop r2
 2179 04e8 0895      		ret
 2180               	.LFE53:
 2182               	.global	sprintf
 2184               	sprintf:
 2185               	.LFB55:
 2186               	.LM114:
 2187               	.LVL127:
 2188 04ea DF93      		push r29
 2189 04ec CF93      		push r28
 2190 04ee CDB7      		in r28,__SP_L__
 2191 04f0 DEB7      		in r29,__SP_H__
 2192               	/* prologue: function */
 2193               	/* frame size = 0 */
 2194               	.LM115:
 2195 04f2 CE01      		movw r24,r28
 2196 04f4 0596      		adiw r24,5
 2197 04f6 BE01      		movw r22,r28
 2198 04f8 695F      		subi r22,lo8(-(7))
 2199 04fa 7F4F      		sbci r23,hi8(-(7))
 2200 04fc 0E94 0000 		call print
 2201               	/* epilogue start */
 2202               	.LM116:
 2203 0500 CF91      		pop r28
 2204 0502 DF91      		pop r29
 2205 0504 0895      		ret
 2206               	.LFE55:
 2208               	.global	printf
 2210               	printf:
 2211               	.LFB54:
 2212               	.LM117:
 2213               	.LVL128:
 2214 0506 DF93      		push r29
 2215 0508 CF93      		push r28
 2216 050a CDB7      		in r28,__SP_L__
 2217 050c DEB7      		in r29,__SP_H__
 2218               	/* prologue: function */
 2219               	/* frame size = 0 */
 2220               	.LM118:
 2221 050e 80E0      		ldi r24,lo8(0)
 2222 0510 90E0      		ldi r25,hi8(0)
 2223 0512 BE01      		movw r22,r28
 2224 0514 6B5F      		subi r22,lo8(-(5))
 2225 0516 7F4F      		sbci r23,hi8(-(5))
 2226 0518 0E94 0000 		call print
 2227               	/* epilogue start */
 2228               	.LM119:
 2229 051c CF91      		pop r28
 2230 051e DF91      		pop r29
 2231 0520 0895      		ret
 2232               	.LFE54:
 2234               	.global	qk_cb_read
 2236               	qk_cb_read:
 2237               	.LFB47:
 2238               	.LM120:
 2239               	.LVL129:
 2240 0522 CF93      		push r28
 2241 0524 DF93      		push r29
 2242               	/* prologue: function */
 2243               	/* frame size = 0 */
 2244 0526 EC01      		movw r28,r24
 2245 0528 9B01      		movw r18,r22
 2246               	.LVL130:
 2247               	.LM121:
 2248 052a 8C85      		ldd r24,Y+12
 2249 052c 9D85      		ldd r25,Y+13
 2250 052e AE85      		ldd r26,Y+14
 2251 0530 BF85      		ldd r27,Y+15
 2252               	.LVL131:
 2253 0532 0097      		sbiw r24,0
 2254 0534 A105      		cpc r26,__zero_reg__
 2255 0536 B105      		cpc r27,__zero_reg__
 2256 0538 01F0      		breq .L84
 2257               	.LM122:
 2258 053a 6A89      		ldd r22,Y+18
 2259 053c 7B89      		ldd r23,Y+19
 2260 053e 4885      		ldd r20,Y+8
 2261 0540 5985      		ldd r21,Y+9
 2262 0542 C901      		movw r24,r18
 2263 0544 0E94 0000 		call memcpy
 2264               	.LM123:
 2265 0548 8A89      		ldd r24,Y+18
 2266 054a 9B89      		ldd r25,Y+19
 2267 054c 2885      		ldd r18,Y+8
 2268 054e 3985      		ldd r19,Y+9
 2269 0550 820F      		add r24,r18
 2270 0552 931F      		adc r25,r19
 2271 0554 9B8B      		std Y+19,r25
 2272 0556 8A8B      		std Y+18,r24
 2273               	.LM124:
 2274 0558 2A81      		ldd r18,Y+2
 2275 055a 3B81      		ldd r19,Y+3
 2276 055c 8217      		cp r24,r18
 2277 055e 9307      		cpc r25,r19
 2278 0560 01F4      		brne .L83
 2279               	.LM125:
 2280 0562 8881      		ld r24,Y
 2281 0564 9981      		ldd r25,Y+1
 2282 0566 9B8B      		std Y+19,r25
 2283 0568 8A8B      		std Y+18,r24
 2284               	.L83:
 2285               	.LM126:
 2286 056a 8C85      		ldd r24,Y+12
 2287 056c 9D85      		ldd r25,Y+13
 2288 056e AE85      		ldd r26,Y+14
 2289 0570 BF85      		ldd r27,Y+15
 2290 0572 0197      		sbiw r24,1
 2291 0574 A109      		sbc r26,__zero_reg__
 2292 0576 B109      		sbc r27,__zero_reg__
 2293 0578 8C87      		std Y+12,r24
 2294 057a 9D87      		std Y+13,r25
 2295 057c AE87      		std Y+14,r26
 2296 057e BF87      		std Y+15,r27
 2297               	.L84:
 2298               	/* epilogue start */
 2299               	.LM127:
 2300 0580 DF91      		pop r29
 2301 0582 CF91      		pop r28
 2302               	.LVL132:
 2303 0584 0895      		ret
 2304               	.LFE47:
 2306               	.global	qk_cb_write
 2308               	qk_cb_write:
 2309               	.LFB46:
 2310               	.LM128:
 2311               	.LVL133:
 2312 0586 CF93      		push r28
 2313 0588 DF93      		push r29
 2314               	/* prologue: function */
 2315               	/* frame size = 0 */
 2316 058a EC01      		movw r28,r24
 2317               	.LM129:
 2318 058c 2C85      		ldd r18,Y+12
 2319 058e 3D85      		ldd r19,Y+13
 2320 0590 4E85      		ldd r20,Y+14
 2321 0592 5F85      		ldd r21,Y+15
 2322 0594 8C81      		ldd r24,Y+4
 2323 0596 9D81      		ldd r25,Y+5
 2324 0598 AE81      		ldd r26,Y+6
 2325 059a BF81      		ldd r27,Y+7
 2326               	.LVL134:
 2327 059c 2817      		cp r18,r24
 2328 059e 3907      		cpc r19,r25
 2329 05a0 4A07      		cpc r20,r26
 2330 05a2 5B07      		cpc r21,r27
 2331 05a4 01F4      		brne .L86
 2332 05a6 8C89      		ldd r24,Y+20
 2333 05a8 8823      		tst r24
 2334 05aa 01F0      		breq .L90
 2335               	.L86:
 2336               	.LM130:
 2337 05ac 4885      		ldd r20,Y+8
 2338 05ae 5985      		ldd r21,Y+9
 2339 05b0 8889      		ldd r24,Y+16
 2340 05b2 9989      		ldd r25,Y+17
 2341 05b4 0E94 0000 		call memcpy
 2342               	.LVL135:
 2343               	.LM131:
 2344 05b8 8889      		ldd r24,Y+16
 2345 05ba 9989      		ldd r25,Y+17
 2346 05bc 2885      		ldd r18,Y+8
 2347 05be 3985      		ldd r19,Y+9
 2348 05c0 820F      		add r24,r18
 2349 05c2 931F      		adc r25,r19
 2350 05c4 998B      		std Y+17,r25
 2351 05c6 888B      		std Y+16,r24
 2352               	.LM132:
 2353 05c8 2A81      		ldd r18,Y+2
 2354 05ca 3B81      		ldd r19,Y+3
 2355 05cc 8217      		cp r24,r18
 2356 05ce 9307      		cpc r25,r19
 2357 05d0 01F4      		brne .L89
 2358               	.LM133:
 2359 05d2 8881      		ld r24,Y
 2360 05d4 9981      		ldd r25,Y+1
 2361 05d6 998B      		std Y+17,r25
 2362 05d8 888B      		std Y+16,r24
 2363               	.L89:
 2364               	.LM134:
 2365 05da 8C85      		ldd r24,Y+12
 2366 05dc 9D85      		ldd r25,Y+13
 2367 05de AE85      		ldd r26,Y+14
 2368 05e0 BF85      		ldd r27,Y+15
 2369 05e2 0196      		adiw r24,1
 2370 05e4 A11D      		adc r26,__zero_reg__
 2371 05e6 B11D      		adc r27,__zero_reg__
 2372 05e8 8C87      		std Y+12,r24
 2373 05ea 9D87      		std Y+13,r25
 2374 05ec AE87      		std Y+14,r26
 2375 05ee BF87      		std Y+15,r27
 2376               	.LVL136:
 2377               	.L90:
 2378               	/* epilogue start */
 2379               	.LM135:
 2380 05f0 DF91      		pop r29
 2381 05f2 CF91      		pop r28
 2382               	.LVL137:
 2383 05f4 0895      		ret
 2384               	.LFE46:
 2514               	.Letext0:
DEFINED SYMBOLS
                            *ABS*:00000000 qk_utils.c
C:\Users\mribeiro\AppData\Local\Temp/cc7ofZvw.s:2      *ABS*:0000003f __SREG__
C:\Users\mribeiro\AppData\Local\Temp/cc7ofZvw.s:3      *ABS*:0000003e __SP_H__
C:\Users\mribeiro\AppData\Local\Temp/cc7ofZvw.s:4      *ABS*:0000003d __SP_L__
C:\Users\mribeiro\AppData\Local\Temp/cc7ofZvw.s:5      *ABS*:00000034 __CCP__
C:\Users\mribeiro\AppData\Local\Temp/cc7ofZvw.s:6      *ABS*:00000000 __tmp_reg__
C:\Users\mribeiro\AppData\Local\Temp/cc7ofZvw.s:7      *ABS*:00000001 __zero_reg__
C:\Users\mribeiro\AppData\Local\Temp/cc7ofZvw.s:1188   .text:00000000 qk_cb_init
C:\Users\mribeiro\AppData\Local\Temp/cc7ofZvw.s:1279   .text:0000007a qk_cb_isFull
C:\Users\mribeiro\AppData\Local\Temp/cc7ofZvw.s:1312   .text:0000009e qk_cb_isEmpty
C:\Users\mribeiro\AppData\Local\Temp/cc7ofZvw.s:1340   .text:000000b8 _floatFromBytes
C:\Users\mribeiro\AppData\Local\Temp/cc7ofZvw.s:1354   .text:000000ba _bytesFromFloat
C:\Users\mribeiro\AppData\Local\Temp/cc7ofZvw.s:1368   .text:000000bc _blinkLED
C:\Users\mribeiro\AppData\Local\Temp/cc7ofZvw.s:1407   .text:000000ea printchar
C:\Users\mribeiro\AppData\Local\Temp/cc7ofZvw.s:1460   .text:00000124 prints
C:\Users\mribeiro\AppData\Local\Temp/cc7ofZvw.s:1619   .text:000001e6 printi
C:\Users\mribeiro\AppData\Local\Temp/cc7ofZvw.s:1859   .text:0000031c print
C:\Users\mribeiro\AppData\Local\Temp/cc7ofZvw.s:2184   .text:000004ea sprintf
C:\Users\mribeiro\AppData\Local\Temp/cc7ofZvw.s:2210   .text:00000506 printf
C:\Users\mribeiro\AppData\Local\Temp/cc7ofZvw.s:2236   .text:00000522 qk_cb_read
C:\Users\mribeiro\AppData\Local\Temp/cc7ofZvw.s:2308   .text:00000586 qk_cb_write

UNDEFINED SYMBOLS
__do_copy_data
__do_clear_bss
__mulsi3
_setLED
delay_ms
hal_uart_writeByte
__udivmodhi4
memcpy
